target datalayout = "e-m:e-p270:32:32-p271:32:32-p272:64:64-i64:64-i128:128-f80:128-n8:16:32:64-S128"
target triple = "x86_64-pc-linux-gnu"

%struct.pmix_object_t = type { %union.pthread_mutex_t, ptr, i32, %struct.pmix_tma }
%union.pthread_mutex_t = type { %struct.__pthread_mutex_s }
%struct.__pthread_mutex_s = type { i32, i32, i32, i32, i32, i16, i16, %struct.__pthread_internal_list }
%struct.__pthread_internal_list = type { ptr, ptr }
%struct.pmix_tma = type { ptr, ptr, ptr, ptr, ptr, ptr, ptr, ptr }
%struct.pmix_list_item_t = type { %struct.pmix_object_t, ptr, ptr, i32 }
%struct.pmix_mca_base_var_group_t = type { %struct.pmix_list_item_t, i32, i8, ptr, ptr, ptr, ptr, ptr, %struct.pmix_value_array_t, %struct.pmix_value_array_t }
%struct.pmix_value_array_t = type { %struct.pmix_object_t, ptr, i64, i64, i64 }

@prte_info_pretty = external global i8, align 1
@.str.106 = private unnamed_addr constant [7 x i8] c"MCA %s\00", align 1
@.str.107 = private unnamed_addr constant [1 x i8] zeroinitializer, align 1

; Function Attrs: inlinehint nounwind uwtable
define internal i64 @pmix_value_array_get_size(ptr noundef %0) #3 {
  %2 = alloca ptr, align 8
  store ptr %0, ptr %2, align 8, !tbaa !75
  %3 = load ptr, ptr %2, align 8, !tbaa !75
  %4 = getelementptr inbounds nuw %struct.pmix_value_array_t, ptr %3, i32 0, i32 3
  %5 = load i64, ptr %4, align 8, !tbaa !77
  ret i64 %5
}

; Function Attrs: nounwind uwtable
define internal void @prte_info_show_mca_group_params(ptr noundef %0, i1 noundef zeroext %1) #0 {
  %3 = alloca ptr, align 8
  %4 = alloca i8, align 1
  %5 = alloca ptr, align 8
  %6 = alloca ptr, align 8
  %7 = alloca i32, align 4
  %8 = alloca i32, align 4
  %9 = alloca i32, align 4
  %10 = alloca i32, align 4
  %11 = alloca ptr, align 8
  %12 = alloca ptr, align 8
  %13 = alloca ptr, align 8
  store ptr %0, ptr %3, align 8, !tbaa !42
  %14 = zext i1 %1 to i8
  store i8 %14, ptr %4, align 1, !tbaa !4
  call void @llvm.lifetime.start.p0(i64 8, ptr %5) #9
  call void @llvm.lifetime.start.p0(i64 8, ptr %6) #9
  call void @llvm.lifetime.start.p0(i64 4, ptr %7) #9
  call void @llvm.lifetime.start.p0(i64 4, ptr %8) #9
  call void @llvm.lifetime.start.p0(i64 4, ptr %9) #9
  call void @llvm.lifetime.start.p0(i64 4, ptr %10) #9
  call void @llvm.lifetime.start.p0(i64 8, ptr %11) #9
  call void @llvm.lifetime.start.p0(i64 8, ptr %12) #9
  %15 = load ptr, ptr %3, align 8, !tbaa !42
  %16 = getelementptr inbounds nuw %struct.pmix_mca_base_var_group_t, ptr %15, i32 0, i32 9
  %17 = getelementptr inbounds nuw %struct.pmix_value_array_t, ptr %16, i32 0, i32 1
  %18 = load ptr, ptr %17, align 8, !tbaa !44
  store ptr %18, ptr %6, align 8, !tbaa !47
  %19 = load ptr, ptr %3, align 8, !tbaa !42
  %20 = getelementptr inbounds nuw %struct.pmix_mca_base_var_group_t, ptr %19, i32 0, i32 9
  %21 = call i64 @pmix_value_array_get_size(ptr noundef %20)
  %22 = trunc i64 %21 to i32
  store i32 %22, ptr %10, align 4, !tbaa !24
  store i32 0, ptr %8, align 4, !tbaa !24
  br label %23

23:                                               ; preds = %95, %2
  %24 = load i32, ptr %8, align 4, !tbaa !24
  %25 = load i32, ptr %10, align 4, !tbaa !24
  %26 = icmp slt i32 %24, %25
  br i1 %26, label %27, label %98

27:                                               ; preds = %23
  %28 = load ptr, ptr %6, align 8, !tbaa !47
  %29 = load i32, ptr %8, align 4, !tbaa !24
  %30 = sext i32 %29 to i64
  %31 = getelementptr inbounds i32, ptr %28, i64 %30
  %32 = load i32, ptr %31, align 4, !tbaa !24
  %33 = call i32 @pmix_mca_base_var_get(i32 noundef %32, ptr noundef %5)
  store i32 %33, ptr %7, align 4, !tbaa !24
  %34 = load i32, ptr %7, align 4, !tbaa !24
  %35 = icmp ne i32 0, %34
  br i1 %35, label %36, label %37

36:                                               ; preds = %27
  br label %95

37:                                               ; preds = %27
  %38 = load ptr, ptr %6, align 8, !tbaa !47
  %39 = load i32, ptr %8, align 4, !tbaa !24
  %40 = sext i32 %39 to i64
  %41 = getelementptr inbounds i32, ptr %38, i64 %40
  %42 = load i32, ptr %41, align 4, !tbaa !24
  %43 = load i8, ptr @prte_info_pretty, align 1, !tbaa !4, !range !12, !noundef !13
  %44 = trunc i8 %43 to i1
  %45 = xor i1 %44, true
  %46 = select i1 %45, i32 1, i32 0
  %47 = call i32 @pmix_mca_base_var_dump(i32 noundef %42, ptr noundef %12, i32 noundef %46)
  store i32 %47, ptr %7, align 4, !tbaa !24
  %48 = load i32, ptr %7, align 4, !tbaa !24
  %49 = icmp ne i32 0, %48
  br i1 %49, label %50, label %51

50:                                               ; preds = %37
  br label %95

51:                                               ; preds = %37
  store i32 0, ptr %9, align 4, !tbaa !24
  br label %52

52:                                               ; preds = %90, %51
  %53 = load ptr, ptr %12, align 8, !tbaa !8
  %54 = load i32, ptr %9, align 4, !tbaa !24
  %55 = sext i32 %54 to i64
  %56 = getelementptr inbounds ptr, ptr %53, i64 %55
  %57 = load ptr, ptr %56, align 8, !tbaa !23
  %58 = icmp ne ptr %57, null
  br i1 %58, label %59, label %93

59:                                               ; preds = %52
  %60 = load i32, ptr %9, align 4, !tbaa !24
  %61 = icmp eq i32 0, %60
  br i1 %61, label %62, label %78

62:                                               ; preds = %59
  %63 = load i8, ptr @prte_info_pretty, align 1, !tbaa !4, !range !12, !noundef !13
  %64 = trunc i8 %63 to i1
  br i1 %64, label %65, label %78

65:                                               ; preds = %62
  call void @llvm.lifetime.start.p0(i64 8, ptr %13) #9
  %66 = load ptr, ptr %3, align 8, !tbaa !42
  %67 = getelementptr inbounds nuw %struct.pmix_mca_base_var_group_t, ptr %66, i32 0, i32 5
  %68 = load ptr, ptr %67, align 8, !tbaa !49
  %69 = call i32 (ptr, ptr, ...) @pmix_asprintf(ptr noundef %13, ptr noundef @.str.106, ptr noundef %68)
  %70 = load ptr, ptr %13, align 8, !tbaa !23
  %71 = load ptr, ptr %13, align 8, !tbaa !23
  %72 = load ptr, ptr %12, align 8, !tbaa !8
  %73 = load i32, ptr %9, align 4, !tbaa !24
  %74 = sext i32 %73 to i64
  %75 = getelementptr inbounds ptr, ptr %72, i64 %74
  %76 = load ptr, ptr %75, align 8, !tbaa !23
  call void @prte_info_out(ptr noundef %70, ptr noundef %71, ptr noundef %76)
  %77 = load ptr, ptr %13, align 8, !tbaa !23
  call void @free(ptr noundef %77) #9
  call void @llvm.lifetime.end.p0(i64 8, ptr %13) #9
  br label %84

78:                                               ; preds = %62, %59
  %79 = load ptr, ptr %12, align 8, !tbaa !8
  %80 = load i32, ptr %9, align 4, !tbaa !24
  %81 = sext i32 %80 to i64
  %82 = getelementptr inbounds ptr, ptr %79, i64 %81
  %83 = load ptr, ptr %82, align 8, !tbaa !23
  call void @prte_info_out(ptr noundef @.str.107, ptr noundef @.str.107, ptr noundef %83)
  br label %84

84:                                               ; preds = %78, %65
  %85 = load ptr, ptr %12, align 8, !tbaa !8
  %86 = load i32, ptr %9, align 4, !tbaa !24
  %87 = sext i32 %86 to i64
  %88 = getelementptr inbounds ptr, ptr %85, i64 %87
  %89 = load ptr, ptr %88, align 8, !tbaa !23
  call void @free(ptr noundef %89) #9
  br label %90

90:                                               ; preds = %84
  %91 = load i32, ptr %9, align 4, !tbaa !24
  %92 = add nsw i32 %91, 1
  store i32 %92, ptr %9, align 4, !tbaa !24
  br label %52, !llvm.loop !50

93:                                               ; preds = %52
  %94 = load ptr, ptr %12, align 8, !tbaa !8
  call void @free(ptr noundef %94) #9
  br label %95

95:                                               ; preds = %93, %50, %36
  %96 = load i32, ptr %8, align 4, !tbaa !24
  %97 = add nsw i32 %96, 1
  store i32 %97, ptr %8, align 4, !tbaa !24
  br label %23, !llvm.loop !51

98:                                               ; preds = %23
  %99 = load ptr, ptr %3, align 8, !tbaa !42
  %100 = getelementptr inbounds nuw %struct.pmix_mca_base_var_group_t, ptr %99, i32 0, i32 8
  %101 = getelementptr inbounds nuw %struct.pmix_value_array_t, ptr %100, i32 0, i32 1
  %102 = load ptr, ptr %101, align 8, !tbaa !52
  store ptr %102, ptr %11, align 8, !tbaa !47
  %103 = load ptr, ptr %3, align 8, !tbaa !42
  %104 = getelementptr inbounds nuw %struct.pmix_mca_base_var_group_t, ptr %103, i32 0, i32 8
  %105 = call i64 @pmix_value_array_get_size(ptr noundef %104)
  %106 = trunc i64 %105 to i32
  store i32 %106, ptr %10, align 4, !tbaa !24
  store i32 0, ptr %8, align 4, !tbaa !24
  br label %107

107:                                              ; preds = %125, %98
  %108 = load i32, ptr %8, align 4, !tbaa !24
  %109 = load i32, ptr %10, align 4, !tbaa !24
  %110 = icmp slt i32 %108, %109
  br i1 %110, label %111, label %128

111:                                              ; preds = %107
  %112 = load ptr, ptr %11, align 8, !tbaa !47
  %113 = load i32, ptr %8, align 4, !tbaa !24
  %114 = sext i32 %113 to i64
  %115 = getelementptr inbounds i32, ptr %112, i64 %114
  %116 = load i32, ptr %115, align 4, !tbaa !24
  %117 = call i32 @pmix_mca_base_var_group_get(i32 noundef %116, ptr noundef %3)
  store i32 %117, ptr %7, align 4, !tbaa !24
  %118 = load i32, ptr %7, align 4, !tbaa !24
  %119 = icmp ne i32 0, %118
  br i1 %119, label %120, label %121

120:                                              ; preds = %111
  br label %125

121:                                              ; preds = %111
  %122 = load ptr, ptr %3, align 8, !tbaa !42
  %123 = load i8, ptr %4, align 1, !tbaa !4, !range !12, !noundef !13
  %124 = trunc i8 %123 to i1
  call void @prte_info_show_mca_group_params(ptr noundef %122, i1 noundef zeroext %124)
  br label %125

125:                                              ; preds = %121, %120
  %126 = load i32, ptr %8, align 4, !tbaa !24
  %127 = add nsw i32 %126, 1
  store i32 %127, ptr %8, align 4, !tbaa !24
  br label %107, !llvm.loop !53

128:                                              ; preds = %107
  call void @llvm.lifetime.end.p0(i64 8, ptr %12) #9
  call void @llvm.lifetime.end.p0(i64 8, ptr %11) #9
  call void @llvm.lifetime.end.p0(i64 4, ptr %10) #9
  call void @llvm.lifetime.end.p0(i64 4, ptr %9) #9
  call void @llvm.lifetime.end.p0(i64 4, ptr %8) #9
  call void @llvm.lifetime.end.p0(i64 4, ptr %7) #9
  call void @llvm.lifetime.end.p0(i64 8, ptr %6) #9
  call void @llvm.lifetime.end.p0(i64 8, ptr %5) #9
  ret void
}